; Function Attrs: mustprogress uwtable
define ptr @gguf_get_arr_str(ptr noundef readonly captures(none) %0, i64 noundef %1, i64 noundef %2) local_unnamed_addr #2 {
  %4 = icmp sgt i64 %1, -1
  br i1 %4, label %5, label %15

5:                                                ; preds = %3
  %6 = getelementptr inbounds nuw i8, ptr %0, i64 8
  %7 = getelementptr inbounds nuw i8, ptr %0, i64 16
  %8 = load ptr, ptr %7, align 8, !tbaa !49
  %9 = load ptr, ptr %6, align 8, !tbaa !48
  %10 = ptrtoint ptr %8 to i64
  %11 = ptrtoint ptr %9 to i64
  %12 = sub i64 %10, %11
  %13 = sdiv exact i64 %12, 88
  %14 = icmp slt i64 %1, %13
  br i1 %14, label %16, label %15

15:                                               ; preds = %5, %3
  tail call void (ptr, i32, ptr, ...) @ggml_abort(ptr noundef nonnull @.str.28, i32 noundef 785, ptr noundef nonnull @.str.29, ptr noundef nonnull @.str.53) #33
  unreachable

16:                                               ; preds = %5
  %17 = getelementptr inbounds nuw %struct.gguf_kv, ptr %9, i64 %1
  %18 = getelementptr inbounds nuw i8, ptr %17, i64 36
  %19 = load i32, ptr %18, align 4, !tbaa !17
  %20 = icmp eq i32 %19, 8
  br i1 %20, label %22, label %21

21:                                               ; preds = %16
  tail call void (ptr, i32, ptr, ...) @ggml_abort(ptr noundef nonnull @.str.28, i32 noundef 786, ptr noundef nonnull @.str.29, ptr noundef nonnull @.str.56) #33
  unreachable

22:                                               ; preds = %16
  %23 = getelementptr inbounds nuw i8, ptr %17, i64 64
  %24 = load ptr, ptr %23, align 8, !tbaa !142
  %25 = getelementptr inbounds nuw %"class.std::__cxx11::basic_string", ptr %24, i64 %2
  %26 = load ptr, ptr %25, align 8, !tbaa !60
  ret ptr %26
}